target datalayout = "e-m:e-p270:32:32-p271:32:32-p272:64:64-i64:64-i128:128-f80:128-n8:16:32:64-S128"
target triple = "x86_64-pc-linux-gnu"

@.str.1 = private unnamed_addr constant [9 x i8] c"t_zset.c\00", align 1
@.str.3 = private unnamed_addr constant [13 x i8] c"sptr != NULL\00", align 1

; Function Attrs: nounwind uwtable
define dso_local double @zzlStrtod(ptr noundef %0, i32 noundef %1) #0 {
  %3 = alloca ptr, align 8
  %4 = alloca i32, align 4
  %5 = alloca [128 x i8], align 16
  store ptr %0, ptr %3, align 8, !tbaa !11
  store i32 %1, ptr %4, align 4, !tbaa !5
  call void @llvm.lifetime.start.p0(i64 128, ptr %5) #12
  %6 = load i32, ptr %4, align 4, !tbaa !5
  %7 = zext i32 %6 to i64
  %8 = icmp ugt i64 %7, 127
  br i1 %8, label %9, label %10

9:                                                ; preds = %2
  store i32 127, ptr %4, align 4, !tbaa !5
  br label %10

10:                                               ; preds = %9, %2
  %11 = getelementptr inbounds [128 x i8], ptr %5, i64 0, i64 0
  %12 = load ptr, ptr %3, align 8, !tbaa !11
  %13 = load i32, ptr %4, align 4, !tbaa !5
  %14 = zext i32 %13 to i64
  call void @llvm.memcpy.p0.p0.i64(ptr align 16 %11, ptr align 1 %12, i64 %14, i1 false)
  %15 = load i32, ptr %4, align 4, !tbaa !5
  %16 = zext i32 %15 to i64
  %17 = getelementptr inbounds nuw [128 x i8], ptr %5, i64 0, i64 %16
  store i8 0, ptr %17, align 1, !tbaa !86
  %18 = getelementptr inbounds [128 x i8], ptr %5, i64 0, i64 0
  %19 = call double @fast_float_strtod(ptr noundef %18, ptr noundef null)
  call void @llvm.lifetime.end.p0(i64 128, ptr %5) #12
  ret double %19
}

; Function Attrs: nounwind uwtable
define dso_local double @zzlGetScore(ptr noundef %0) #0 {
  %2 = alloca ptr, align 8
  %3 = alloca ptr, align 8
  %4 = alloca i32, align 4
  %5 = alloca i64, align 8
  %6 = alloca double, align 8
  store ptr %0, ptr %2, align 8, !tbaa !11
  call void @llvm.lifetime.start.p0(i64 8, ptr %3) #12
  call void @llvm.lifetime.start.p0(i64 4, ptr %4) #12
  call void @llvm.lifetime.start.p0(i64 8, ptr %5) #12
  call void @llvm.lifetime.start.p0(i64 8, ptr %6) #12
  %7 = load ptr, ptr %2, align 8, !tbaa !11
  %8 = icmp ne ptr %7, null
  %9 = xor i1 %8, true
  %10 = xor i1 %9, true
  %11 = zext i1 %10 to i32
  %12 = sext i32 %11 to i64
  %13 = call i64 @llvm.expect.i64(i64 %12, i64 1)
  %14 = icmp ne i64 %13, 0
  br i1 %14, label %15, label %16

15:                                               ; preds = %1
  br label %18

16:                                               ; preds = %1
  call void @_serverAssert(ptr noundef @.str.3, ptr noundef @.str.1, i32 noundef 785)
  call void @abort() #14
  unreachable

17:                                               ; No predecessors!
  br label %18

18:                                               ; preds = %17, %15
  %19 = load ptr, ptr %2, align 8, !tbaa !11
  %20 = call ptr @lpGetValue(ptr noundef %19, ptr noundef %4, ptr noundef %5)
  store ptr %20, ptr %3, align 8, !tbaa !11
  %21 = load ptr, ptr %3, align 8, !tbaa !11
  %22 = icmp ne ptr %21, null
  br i1 %22, label %23, label %27

23:                                               ; preds = %18
  %24 = load ptr, ptr %3, align 8, !tbaa !11
  %25 = load i32, ptr %4, align 4, !tbaa !5
  %26 = call double @zzlStrtod(ptr noundef %24, i32 noundef %25)
  store double %26, ptr %6, align 8, !tbaa !9
  br label %30

27:                                               ; preds = %18
  %28 = load i64, ptr %5, align 8, !tbaa !99
  %29 = sitofp i64 %28 to double
  store double %29, ptr %6, align 8, !tbaa !9
  br label %30

30:                                               ; preds = %27, %23
  %31 = load double, ptr %6, align 8, !tbaa !9
  call void @llvm.lifetime.end.p0(i64 8, ptr %6) #12
  call void @llvm.lifetime.end.p0(i64 8, ptr %5) #12
  call void @llvm.lifetime.end.p0(i64 4, ptr %4) #12
  call void @llvm.lifetime.end.p0(i64 8, ptr %3) #12
  ret double %31
}