; Function Attrs: nounwind uwtable
define dso_local double @zzlGetScore(ptr noundef %0) local_unnamed_addr #0 {
  %2 = alloca [128 x i8], align 16
  %3 = alloca i32, align 4
  %4 = alloca i64, align 8
  call void @llvm.lifetime.start.p0(i64 4, ptr nonnull %3) #18
  call void @llvm.lifetime.start.p0(i64 8, ptr nonnull %4) #18
  %.not = icmp eq ptr %0, null
  br i1 %.not, label %5, label %6, !prof !40

5:                                                ; preds = %1
  tail call void @_serverAssert(ptr noundef nonnull @.str.3, ptr noundef nonnull @.str.1, i32 noundef 785) #18
  tail call void @abort() #19
  unreachable

6:                                                ; preds = %1
  %7 = call ptr @lpGetValue(ptr noundef nonnull %0, ptr noundef nonnull %3, ptr noundef nonnull %4) #18
  %.not7 = icmp eq ptr %7, null
  br i1 %.not7, label %13, label %8

8:                                                ; preds = %6
  %9 = load i32, ptr %3, align 4, !tbaa !78
  call void @llvm.lifetime.start.p0(i64 128, ptr nonnull %2) #18
  %spec.store.select.i = call i32 @llvm.umin.i32(i32 %9, i32 127)
  %10 = zext nneg i32 %spec.store.select.i to i64
  call void @llvm.memcpy.p0.p0.i64(ptr nonnull align 16 %2, ptr nonnull readonly align 1 %7, i64 %10, i1 false)
  %11 = getelementptr inbounds nuw [128 x i8], ptr %2, i64 0, i64 %10
  store i8 0, ptr %11, align 1, !tbaa !77
  %12 = call double @fast_float_strtod(ptr noundef nonnull %2, ptr noundef null) #18
  call void @llvm.lifetime.end.p0(i64 128, ptr nonnull %2) #18
  br label %16

13:                                               ; preds = %6
  %14 = load i64, ptr %4, align 8, !tbaa !88
  %15 = sitofp i64 %14 to double
  br label %16

16:                                               ; preds = %13, %8
  %.0 = phi double [ %12, %8 ], [ %15, %13 ]
  call void @llvm.lifetime.end.p0(i64 8, ptr nonnull %4) #18
  call void @llvm.lifetime.end.p0(i64 4, ptr nonnull %3) #18
  ret double %.0
}